; Function Attrs: nounwind uwtable
define range(i32 -101, 1) i32 @CVodeGetAdjDataPointPolynomial(ptr noundef %0, i32 noundef %1, ptr noundef writeonly captures(none) %2, ptr noundef writeonly captures(none) %3, ptr noundef %4) local_unnamed_addr #0 {
  %6 = icmp eq ptr %0, null
  br i1 %6, label %7, label %8

7:                                                ; preds = %5
  tail call void (ptr, i32, i32, ptr, ptr, ptr, ...) @cvProcessError(ptr noundef null, i32 noundef -21, i32 noundef 739, ptr noundef nonnull @__func__.CVodeGetAdjDataPointPolynomial, ptr noundef nonnull @.str, ptr noundef nonnull @.str.1) #2
  br label %34

8:                                                ; preds = %5
  %9 = getelementptr inbounds nuw i8, ptr %0, i64 2680
  %10 = load i32, ptr %9, align 8
  %11 = icmp eq i32 %10, 0
  br i1 %11, label %12, label %13

12:                                               ; preds = %8
  tail call void (ptr, i32, i32, ptr, ptr, ptr, ...) @cvProcessError(ptr noundef nonnull %0, i32 noundef -101, i32 noundef 747, ptr noundef nonnull @__func__.CVodeGetAdjDataPointPolynomial, ptr noundef nonnull @.str, ptr noundef nonnull @.str.2) #2
  br label %34

13:                                               ; preds = %8
  %14 = getelementptr inbounds nuw i8, ptr %0, i64 2672
  %15 = load ptr, ptr %14, align 8
  %16 = getelementptr inbounds nuw i8, ptr %15, i64 136
  %17 = load i32, ptr %16, align 8
  %.not = icmp eq i32 %17, 2
  br i1 %.not, label %19, label %18

18:                                               ; preds = %13
  tail call void (ptr, i32, i32, ptr, ptr, ptr, ...) @cvProcessError(ptr noundef nonnull %0, i32 noundef -22, i32 noundef 756, ptr noundef nonnull @__func__.CVodeGetAdjDataPointPolynomial, ptr noundef nonnull @.str, ptr noundef nonnull @.str.4) #2
  br label %34

19:                                               ; preds = %13
  %20 = getelementptr inbounds nuw i8, ptr %15, i64 120
  %21 = load ptr, ptr %20, align 8
  %22 = sext i32 %1 to i64
  %23 = getelementptr inbounds ptr, ptr %21, i64 %22
  %24 = load ptr, ptr %23, align 8
  %25 = load double, ptr %24, align 8
  store double %25, ptr %2, align 8
  %26 = load ptr, ptr %23, align 8
  %27 = getelementptr inbounds nuw i8, ptr %26, i64 8
  %28 = load ptr, ptr %27, align 8
  %.not20 = icmp eq ptr %4, null
  br i1 %.not20, label %31, label %29

29:                                               ; preds = %19
  %30 = load ptr, ptr %28, align 8
  tail call void @N_VScale(double noundef 1.000000e+00, ptr noundef %30, ptr noundef nonnull %4) #2
  br label %31

31:                                               ; preds = %29, %19
  %32 = getelementptr inbounds nuw i8, ptr %28, i64 16
  %33 = load i32, ptr %32, align 8
  store i32 %33, ptr %3, align 4
  br label %34

34:                                               ; preds = %31, %18, %12, %7
  %.0 = phi i32 [ -21, %7 ], [ -101, %12 ], [ -22, %18 ], [ 0, %31 ]
  ret i32 %.0
}